target datalayout = "e-m:e-p270:32:32-p271:32:32-p272:64:64-i64:64-i128:128-f80:128-n8:16:32:64-S128"
target triple = "x86_64-pc-linux-gnu"

%struct.H5VL_connector_t = type { ptr, i64, ptr, ptr }
%struct.H5VL_object_t = type { ptr, ptr, i64 }

@.str = private unnamed_addr constant [106 x i8] c"generated/home/dtcxzyw/WorkSpace/Projects/compilers/llvm-opt-benchmark/bench/hdf5/hdf5/src/H5VLcallback.c\00", align 1
@H5E_VOL_g = external global i64, align 8
@H5VL_init_g = external global i8, align 1
@H5_libterm_g = external global i8, align 1
@H5E_FUNC_g = external global i64, align 8
@H5E_CANTINIT_g = external global i64, align 8
@.str.5 = private unnamed_addr constant [32 x i8] c"interface initialization failed\00", align 1
@H5E_CANTGET_g = external global i64, align 8
@__func__.H5VL_blob_get = private unnamed_addr constant [14 x i8] c"H5VL_blob_get\00", align 1
@.str.157 = private unnamed_addr constant [16 x i8] c"blob get failed\00", align 1

; Function Attrs: nounwind uwtable
define i32 @H5VL_blob_get(ptr noundef %0, ptr noundef %1, ptr noundef %2, i64 noundef %3, ptr noundef %4) #0 {
  %6 = alloca ptr, align 8
  %7 = alloca ptr, align 8
  %8 = alloca ptr, align 8
  %9 = alloca i64, align 8
  %10 = alloca ptr, align 8
  %11 = alloca i32, align 4
  %12 = alloca i8, align 1
  store ptr %0, ptr %6, align 8, !tbaa !58
  store ptr %1, ptr %7, align 8, !tbaa !42
  store ptr %2, ptr %8, align 8, !tbaa !42
  store i64 %3, ptr %9, align 8, !tbaa !3
  store ptr %4, ptr %10, align 8, !tbaa !42
  call void @llvm.lifetime.start.p0(i64 4, ptr %11) #8
  store i32 0, ptr %11, align 4, !tbaa !7
  call void @llvm.lifetime.start.p0(i64 1, ptr %12) #8
  store i8 0, ptr %12, align 1, !tbaa !9
  %13 = load i8, ptr @H5VL_init_g, align 1, !tbaa !9, !range !14, !noundef !15
  %14 = trunc i8 %13 to i1
  br i1 %14, label %19, label %15

15:                                               ; preds = %5
  %16 = load i8, ptr @H5_libterm_g, align 1, !tbaa !9, !range !14, !noundef !15
  %17 = trunc i8 %16 to i1
  %18 = xor i1 %17, true
  br label %19

19:                                               ; preds = %15, %5
  %20 = phi i1 [ false, %5 ], [ %18, %15 ]
  %21 = xor i1 %20, true
  %22 = xor i1 %21, true
  %23 = zext i1 %22 to i32
  %24 = sext i32 %23 to i64
  %25 = call i64 @llvm.expect.i64(i64 %24, i64 0)
  %26 = icmp ne i64 %25, 0
  br i1 %26, label %27, label %50

27:                                               ; preds = %19
  store i8 1, ptr @H5VL_init_g, align 1, !tbaa !9
  %28 = call i32 @H5VL__init_package()
  %29 = icmp slt i32 %28, 0
  br i1 %29, label %30, label %49

30:                                               ; preds = %27
  store i8 0, ptr @H5VL_init_g, align 1, !tbaa !9
  br label %31

31:                                               ; preds = %30
  br label %32

32:                                               ; preds = %31
  br label %33

33:                                               ; preds = %32
  %34 = load i64, ptr @H5E_FUNC_g, align 8, !tbaa !3
  %35 = load i64, ptr @H5E_CANTINIT_g, align 8, !tbaa !3
  %36 = call i32 (ptr, ptr, i32, i64, i64, ptr, ...) @H5E_printf_stack(ptr noundef @.str, ptr noundef @__func__.H5VL_blob_get, i32 noundef 7545, i64 noundef %34, i64 noundef %35, ptr noundef @.str.5)
  br label %37

37:                                               ; preds = %33
  br label %38

38:                                               ; preds = %37
  store i8 1, ptr %12, align 1, !tbaa !9
  %39 = load i8, ptr %12, align 1, !tbaa !9, !range !14, !noundef !15
  %40 = trunc i8 %39 to i1
  %41 = zext i1 %40 to i8
  store i8 %41, ptr %12, align 1, !tbaa !9
  br label %42

42:                                               ; preds = %38
  br label %43

43:                                               ; preds = %42
  br label %44

44:                                               ; preds = %43
  store i32 -1, ptr %11, align 4, !tbaa !7
  br label %100

45:                                               ; No predecessors!
  br label %46

46:                                               ; preds = %45
  br label %47

47:                                               ; preds = %46
  br label %48

48:                                               ; preds = %47
  br label %49

49:                                               ; preds = %48, %27
  br label %50

50:                                               ; preds = %49, %19
  %51 = load i8, ptr @H5VL_init_g, align 1, !tbaa !9, !range !14, !noundef !15
  %52 = trunc i8 %51 to i1
  br i1 %52, label %57, label %53

53:                                               ; preds = %50
  %54 = load i8, ptr @H5_libterm_g, align 1, !tbaa !9, !range !14, !noundef !15
  %55 = trunc i8 %54 to i1
  %56 = xor i1 %55, true
  br label %57

57:                                               ; preds = %53, %50
  %58 = phi i1 [ true, %50 ], [ %56, %53 ]
  %59 = xor i1 %58, true
  %60 = xor i1 %59, true
  %61 = zext i1 %60 to i32
  %62 = sext i32 %61 to i64
  %63 = call i64 @llvm.expect.i64(i64 %62, i64 1)
  %64 = icmp ne i64 %63, 0
  br i1 %64, label %65, label %101

65:                                               ; preds = %57
  %66 = load ptr, ptr %6, align 8, !tbaa !58
  %67 = getelementptr inbounds nuw %struct.H5VL_object_t, ptr %66, i32 0, i32 0
  %68 = load ptr, ptr %67, align 8, !tbaa !62
  %69 = load ptr, ptr %6, align 8, !tbaa !58
  %70 = getelementptr inbounds nuw %struct.H5VL_object_t, ptr %69, i32 0, i32 1
  %71 = load ptr, ptr %70, align 8, !tbaa !64
  %72 = getelementptr inbounds nuw %struct.H5VL_connector_t, ptr %71, i32 0, i32 0
  %73 = load ptr, ptr %72, align 8, !tbaa !16
  %74 = load ptr, ptr %7, align 8, !tbaa !42
  %75 = load ptr, ptr %8, align 8, !tbaa !42
  %76 = load i64, ptr %9, align 8, !tbaa !3
  %77 = load ptr, ptr %10, align 8, !tbaa !42
  %78 = call i32 @H5VL__blob_get(ptr noundef %68, ptr noundef %73, ptr noundef %74, ptr noundef %75, i64 noundef %76, ptr noundef %77)
  %79 = icmp slt i32 %78, 0
  br i1 %79, label %80, label %99

80:                                               ; preds = %65
  br label %81

81:                                               ; preds = %80
  br label %82

82:                                               ; preds = %81
  br label %83

83:                                               ; preds = %82
  %84 = load i64, ptr @H5E_VOL_g, align 8, !tbaa !3
  %85 = load i64, ptr @H5E_CANTGET_g, align 8, !tbaa !3
  %86 = call i32 (ptr, ptr, i32, i64, i64, ptr, ...) @H5E_printf_stack(ptr noundef @.str, ptr noundef @__func__.H5VL_blob_get, i32 noundef 7554, i64 noundef %84, i64 noundef %85, ptr noundef @.str.157)
  br label %87

87:                                               ; preds = %83
  br label %88

88:                                               ; preds = %87
  store i8 1, ptr %12, align 1, !tbaa !9
  %89 = load i8, ptr %12, align 1, !tbaa !9, !range !14, !noundef !15
  %90 = trunc i8 %89 to i1
  %91 = zext i1 %90 to i8
  store i8 %91, ptr %12, align 1, !tbaa !9
  br label %92

92:                                               ; preds = %88
  br label %93

93:                                               ; preds = %92
  br label %94

94:                                               ; preds = %93
  store i32 -1, ptr %11, align 4, !tbaa !7
  br label %100

95:                                               ; No predecessors!
  br label %96

96:                                               ; preds = %95
  br label %97

97:                                               ; preds = %96
  br label %98

98:                                               ; preds = %97
  br label %99

99:                                               ; preds = %98, %65
  br label %100

100:                                              ; preds = %99, %94, %44
  br label %101

101:                                              ; preds = %100, %57
  %102 = load i32, ptr %11, align 4, !tbaa !7
  call void @llvm.lifetime.end.p0(i64 1, ptr %12) #8
  call void @llvm.lifetime.end.p0(i64 4, ptr %11) #8
  ret i32 %102
}