; Function Attrs: nounwind uwtable
define range(i32 -1, 1) i32 @H5VL_blob_get(ptr noundef readonly captures(none) %0, ptr noundef %1, ptr noundef %2, i64 noundef %3, ptr noundef %4) local_unnamed_addr #0 {
  %6 = load i8, ptr @H5VL_init_g, align 1, !tbaa !33, !range !35, !noundef !36
  %7 = trunc nuw i8 %6 to i1
  %8 = load i8, ptr @H5_libterm_g, align 1, !range !35
  %9 = trunc nuw i8 %8 to i1
  %10 = select i1 %7, i1 true, i1 %9
  br i1 %10, label %18, label %11, !prof !37

11:                                               ; preds = %5
  store i8 1, ptr @H5VL_init_g, align 1, !tbaa !33
  %12 = tail call i32 @H5VL__init_package() #7
  %13 = icmp slt i32 %12, 0
  br i1 %13, label %14, label %._crit_edge

._crit_edge:                                      ; preds = %11
  %.pre = load i8, ptr @H5VL_init_g, align 1, !tbaa !33, !range !35
  %.pre8 = load i8, ptr @H5_libterm_g, align 1, !range !35
  %.pre9 = trunc nuw i8 %.pre to i1
  %.pre10 = trunc nuw i8 %.pre8 to i1
  br label %18

14:                                               ; preds = %11
  store i8 0, ptr @H5VL_init_g, align 1, !tbaa !33
  %15 = load i64, ptr @H5E_FUNC_g, align 8, !tbaa !3
  %16 = load i64, ptr @H5E_CANTINIT_g, align 8, !tbaa !3
  %17 = tail call i32 (ptr, ptr, i32, i64, i64, ptr, ...) @H5E_printf_stack(ptr noundef nonnull @.str, ptr noundef nonnull @__func__.H5VL_blob_get, i32 noundef 7545, i64 noundef %15, i64 noundef %16, ptr noundef nonnull @.str.5) #7
  br label %32

18:                                               ; preds = %._crit_edge, %5
  %.pre-phi11 = phi i1 [ %.pre10, %._crit_edge ], [ %9, %5 ]
  %.pre-phi = phi i1 [ %.pre9, %._crit_edge ], [ %7, %5 ]
  %19 = xor i1 %.pre-phi11, true
  %20 = select i1 %.pre-phi, i1 true, i1 %19
  br i1 %20, label %21, label %32, !prof !37

21:                                               ; preds = %18
  %22 = load ptr, ptr %0, align 8, !tbaa !55
  %23 = getelementptr inbounds nuw i8, ptr %0, i64 8
  %24 = load ptr, ptr %23, align 8, !tbaa !57
  %25 = load ptr, ptr %24, align 8, !tbaa !7
  %26 = tail call fastcc i32 @H5VL__blob_get(ptr noundef %22, ptr noundef %25, ptr noundef %1, ptr noundef %2, i64 noundef %3, ptr noundef %4)
  %27 = icmp slt i32 %26, 0
  br i1 %27, label %28, label %32

28:                                               ; preds = %21
  %29 = load i64, ptr @H5E_VOL_g, align 8, !tbaa !3
  %30 = load i64, ptr @H5E_CANTGET_g, align 8, !tbaa !3
  %31 = tail call i32 (ptr, ptr, i32, i64, i64, ptr, ...) @H5E_printf_stack(ptr noundef nonnull @.str, ptr noundef nonnull @__func__.H5VL_blob_get, i32 noundef 7554, i64 noundef %29, i64 noundef %30, ptr noundef nonnull @.str.157) #7
  br label %32

32:                                               ; preds = %14, %28, %21, %18
  %.0 = phi i32 [ -1, %14 ], [ -1, %28 ], [ 0, %21 ], [ 0, %18 ]
  ret i32 %.0
}